; ModuleID = '10/2130.c'
source_filename = "10/2130.c"
target datalayout = "e-m:e-p270:32:32-p271:32:32-p272:64:64-i64:64-f80:128-n8:16:32:64-S128"
target triple = "x86_64-pc-linux-gnu"

@.str = private unnamed_addr constant [3 x i8] c"%d\00", align 1

; Function Attrs: noinline nounwind uwtable
define dso_local i32 @max(i32 %0, i32 %1) #0 {
  %3 = alloca i32, align 4
  %4 = alloca i32, align 4
  %5 = alloca i32, align 4
  store i32 %0, i32* %4, align 4
  store i32 %1, i32* %5, align 4
  %6 = load i32, i32* %4, align 4
  %7 = load i32, i32* %5, align 4
  %8 = icmp sgt i32 %6, %7
  br i1 %8, label %9, label %11

9:                                                ; preds = %2
  %10 = load i32, i32* %4, align 4
  store i32 %10, i32* %3, align 4
  br label %13

11:                                               ; preds = %2
  %12 = load i32, i32* %5, align 4
  store i32 %12, i32* %3, align 4
  br label %13

13:                                               ; preds = %11, %9
  %14 = load i32, i32* %3, align 4
  ret i32 %14
}

; Function Attrs: noinline nounwind uwtable
define dso_local i32 @main() #0 {
  %1 = alloca i32, align 4
  %2 = alloca [30 x i32], align 16
  %3 = alloca i32, align 4
  %4 = alloca [30 x i32], align 16
  %5 = alloca i32, align 4
  %6 = alloca i32, align 4
  %7 = alloca i32, align 4
  %8 = alloca i32, align 4
  store i32 0, i32* %1, align 4
  store i32 0, i32* %3, align 4
  %9 = bitcast [30 x i32]* %4 to i8*
  call void @llvm.memset.p0i8.i64(i8* align 16 %9, i8 0, i64 120, i1 false)
  %10 = call i32 (i8*, ...) @__isoc99_scanf(i8* getelementptr inbounds ([3 x i8], [3 x i8]* @.str, i64 0, i64 0), i32* %5)
  store i32 1, i32* %6, align 4
  br label %11

11:                                               ; preds = %23, %0
  %12 = load i32, i32* %6, align 4
  %13 = load i32, i32* %5, align 4
  %14 = icmp sle i32 %12, %13
  br i1 %14, label %15, label %26

15:                                               ; preds = %11
  %16 = load i32, i32* %6, align 4
  %17 = sext i32 %16 to i64
  %18 = getelementptr inbounds [30 x i32], [30 x i32]* %2, i64 0, i64 %17
  %19 = call i32 (i8*, ...) @__isoc99_scanf(i8* getelementptr inbounds ([3 x i8], [3 x i8]* @.str, i64 0, i64 0), i32* %18)
  %20 = load i32, i32* %6, align 4
  %21 = sext i32 %20 to i64
  %22 = getelementptr inbounds [30 x i32], [30 x i32]* %4, i64 0, i64 %21
  store i32 1, i32* %22, align 4
  br label %23

23:                                               ; preds = %15
  %24 = load i32, i32* %6, align 4
  %25 = add nsw i32 %24, 1
  store i32 %25, i32* %6, align 4
  br label %11

26:                                               ; preds = %11
  store i32 2, i32* %7, align 4
  br label %27

27:                                               ; preds = %77, %26
  %28 = load i32, i32* %7, align 4
  %29 = load i32, i32* %5, align 4
  %30 = icmp sle i32 %28, %29
  br i1 %30, label %31, label %80

31:                                               ; preds = %27
  store i32 1, i32* %8, align 4
  br label %32

32:                                               ; preds = %73, %31
  %33 = load i32, i32* %8, align 4
  %34 = load i32, i32* %7, align 4
  %35 = icmp slt i32 %33, %34
  br i1 %35, label %36, label %76

36:                                               ; preds = %32
  %37 = load i32, i32* %7, align 4
  %38 = sext i32 %37 to i64
  %39 = getelementptr inbounds [30 x i32], [30 x i32]* %2, i64 0, i64 %38
  %40 = load i32, i32* %39, align 4
  %41 = load i32, i32* %8, align 4
  %42 = sext i32 %41 to i64
  %43 = getelementptr inbounds [30 x i32], [30 x i32]* %2, i64 0, i64 %42
  %44 = load i32, i32* %43, align 4
  %45 = icmp sle i32 %40, %44
  br i1 %45, label %46, label %72

46:                                               ; preds = %36
  %47 = load i32, i32* %7, align 4
  %48 = sext i32 %47 to i64
  %49 = getelementptr inbounds [30 x i32], [30 x i32]* %4, i64 0, i64 %48
  %50 = load i32, i32* %49, align 4
  %51 = load i32, i32* %8, align 4
  %52 = sext i32 %51 to i64
  %53 = getelementptr inbounds [30 x i32], [30 x i32]* %4, i64 0, i64 %52
  %54 = load i32, i32* %53, align 4
  %55 = add nsw i32 %54, 1
  %56 = call i32 @max(i32 %50, i32 %55)
  %57 = load i32, i32* %7, align 4
  %58 = sext i32 %57 to i64
  %59 = getelementptr inbounds [30 x i32], [30 x i32]* %4, i64 0, i64 %58
  store i32 %56, i32* %59, align 4
  %60 = load i32, i32* %7, align 4
  %61 = sext i32 %60 to i64
  %62 = getelementptr inbounds [30 x i32], [30 x i32]* %4, i64 0, i64 %61
  %63 = load i32, i32* %62, align 4
  %64 = load i32, i32* %3, align 4
  %65 = icmp sgt i32 %63, %64
  br i1 %65, label %66, label %71

66:                                               ; preds = %46
  %67 = load i32, i32* %7, align 4
  %68 = sext i32 %67 to i64
  %69 = getelementptr inbounds [30 x i32], [30 x i32]* %4, i64 0, i64 %68
  %70 = load i32, i32* %69, align 4
  store i32 %70, i32* %3, align 4
  br label %71

71:                                               ; preds = %66, %46
  br label %72

72:                                               ; preds = %71, %36
  br label %73

73:                                               ; preds = %72
  %74 = load i32, i32* %8, align 4
  %75 = add nsw i32 %74, 1
  store i32 %75, i32* %8, align 4
  br label %32

76:                                               ; preds = %32
  br label %77

77:                                               ; preds = %76
  %78 = load i32, i32* %7, align 4
  %79 = add nsw i32 %78, 1
  store i32 %79, i32* %7, align 4
  br label %27

80:                                               ; preds = %27
  %81 = load i32, i32* %3, align 4
  %82 = call i32 (i8*, ...) @printf(i8* getelementptr inbounds ([3 x i8], [3 x i8]* @.str, i64 0, i64 0), i32 %81)
  %83 = load i32, i32* %1, align 4
  ret i32 %83
}

; Function Attrs: argmemonly nounwind willreturn
declare void @llvm.memset.p0i8.i64(i8* nocapture writeonly, i8, i64, i1 immarg) #1

declare dso_local i32 @__isoc99_scanf(i8*, ...) #2

declare dso_local i32 @printf(i8*, ...) #2


!llvm.module.flags = !{!0}
!llvm.ident = !{!1}

!0 = !{i32 1, !"wchar_size", i32 4}
!1 = !{!"clang version 10.0.0-4ubuntu1 "}
