; ModuleID = 'source-C-CXX/9/2130.c'
source_filename = "source-C-CXX/9/2130.c"
target datalayout = "e-m:e-p270:32:32-p271:32:32-p272:64:64-i64:64-f80:128-n8:16:32:64-S128"
target triple = "x86_64-pc-linux-gnu"

@.str = private unnamed_addr constant [3 x i8] c"%d\00", align 1

; Function Attrs: mustprogress nofree norecurse nosync nounwind readnone sspstrong uwtable willreturn
define dso_local i32 @max(i32 %0, i32 %1) local_unnamed_addr #0 {
  %3 = icmp sgt i32 %0, %1
  %4 = select i1 %3, i32 %0, i32 %1
  ret i32 %4
}

; Function Attrs: nofree nounwind sspstrong uwtable
define dso_local i32 @main() local_unnamed_addr #1 {
  %1 = alloca [30 x i32], align 16
  %2 = alloca [30 x i32], align 16
  %3 = alloca i32, align 4
  %4 = bitcast [30 x i32]* %1 to i8*
  call void @llvm.lifetime.start.p0i8(i64 120, i8* nonnull %4) #5
  %5 = bitcast [30 x i32]* %2 to i8*
  call void @llvm.lifetime.start.p0i8(i64 120, i8* nonnull %5) #5
  call void @llvm.memset.p0i8.i64(i8* noundef nonnull align 16 dereferenceable(120) %5, i8 0, i64 120, i1 false)
  %6 = bitcast i32* %3 to i8*
  call void @llvm.lifetime.start.p0i8(i64 4, i8* nonnull %6) #5
  %7 = call i32 (i8*, ...) @__isoc99_scanf(i8* getelementptr inbounds ([3 x i8], [3 x i8]* @.str, i64 0, i64 0), i32* nonnull %3)
  %8 = load i32, i32* %3, align 4, !tbaa !5
  %9 = icmp slt i32 %8, 1
  br i1 %9, label %30, label %15

10:                                               ; preds = %15
  %11 = icmp slt i32 %21, 2
  br i1 %11, label %30, label %12

12:                                               ; preds = %10
  %13 = add nuw i32 %21, 1
  %14 = zext i32 %13 to i64
  br label %24

15:                                               ; preds = %0, %15
  %16 = phi i64 [ %20, %15 ], [ 1, %0 ]
  %17 = getelementptr inbounds [30 x i32], [30 x i32]* %1, i64 0, i64 %16
  %18 = call i32 (i8*, ...) @__isoc99_scanf(i8* getelementptr inbounds ([3 x i8], [3 x i8]* @.str, i64 0, i64 0), i32* nonnull %17)
  %19 = getelementptr inbounds [30 x i32], [30 x i32]* %2, i64 0, i64 %16
  store i32 1, i32* %19, align 4, !tbaa !5
  %20 = add nuw nsw i64 %16, 1
  %21 = load i32, i32* %3, align 4, !tbaa !5
  %22 = sext i32 %21 to i64
  %23 = icmp slt i64 %16, %22
  br i1 %23, label %15, label %10, !llvm.loop !9

24:                                               ; preds = %12, %33
  %25 = phi i64 [ 2, %12 ], [ %34, %33 ]
  %26 = phi i32 [ 0, %12 ], [ %52, %33 ]
  %27 = getelementptr inbounds [30 x i32], [30 x i32]* %1, i64 0, i64 %25
  %28 = load i32, i32* %27, align 4, !tbaa !5
  %29 = getelementptr inbounds [30 x i32], [30 x i32]* %2, i64 0, i64 %25
  br label %36

30:                                               ; preds = %33, %0, %10
  %31 = phi i32 [ 0, %10 ], [ 0, %0 ], [ %52, %33 ]
  %32 = call i32 (i8*, ...) @printf(i8* nonnull dereferenceable(1) getelementptr inbounds ([3 x i8], [3 x i8]* @.str, i64 0, i64 0), i32 %31)
  call void @llvm.lifetime.end.p0i8(i64 4, i8* nonnull %6) #5
  call void @llvm.lifetime.end.p0i8(i64 120, i8* nonnull %5) #5
  call void @llvm.lifetime.end.p0i8(i64 120, i8* nonnull %4) #5
  ret i32 0

33:                                               ; preds = %51
  %34 = add nuw nsw i64 %25, 1
  %35 = icmp eq i64 %34, %14
  br i1 %35, label %30, label %24, !llvm.loop !11

36:                                               ; preds = %24, %51
  %37 = phi i64 [ 1, %24 ], [ %53, %51 ]
  %38 = phi i32 [ %26, %24 ], [ %52, %51 ]
  %39 = getelementptr inbounds [30 x i32], [30 x i32]* %1, i64 0, i64 %37
  %40 = load i32, i32* %39, align 4, !tbaa !5
  %41 = icmp sgt i32 %28, %40
  br i1 %41, label %51, label %42

42:                                               ; preds = %36
  %43 = load i32, i32* %29, align 4, !tbaa !5
  %44 = getelementptr inbounds [30 x i32], [30 x i32]* %2, i64 0, i64 %37
  %45 = load i32, i32* %44, align 4, !tbaa !5
  %46 = add nsw i32 %45, 1
  %47 = icmp sgt i32 %43, %46
  %48 = select i1 %47, i32 %43, i32 %46
  store i32 %48, i32* %29, align 4, !tbaa !5
  %49 = icmp sgt i32 %48, %38
  %50 = select i1 %49, i32 %48, i32 %38
  br label %51

51:                                               ; preds = %42, %36
  %52 = phi i32 [ %38, %36 ], [ %50, %42 ]
  %53 = add nuw nsw i64 %37, 1
  %54 = icmp eq i64 %53, %25
  br i1 %54, label %33, label %36, !llvm.loop !12
}

; Function Attrs: argmemonly mustprogress nofree nosync nounwind willreturn
declare void @llvm.lifetime.start.p0i8(i64 immarg, i8* nocapture) #2

; Function Attrs: argmemonly mustprogress nofree nounwind willreturn writeonly
declare void @llvm.memset.p0i8.i64(i8* nocapture writeonly, i8, i64, i1 immarg) #3

; Function Attrs: nofree nounwind
declare noundef i32 @__isoc99_scanf(i8* nocapture noundef readonly, ...) local_unnamed_addr #4

; Function Attrs: argmemonly mustprogress nofree nosync nounwind willreturn
declare void @llvm.lifetime.end.p0i8(i64 immarg, i8* nocapture) #2

; Function Attrs: nofree nounwind
declare noundef i32 @printf(i8* nocapture noundef readonly, ...) local_unnamed_addr #4


!llvm.module.flags = !{!0, !1, !2, !3}
!llvm.ident = !{!4}

!0 = !{i32 1, !"wchar_size", i32 4}
!1 = !{i32 7, !"PIC Level", i32 2}
!2 = !{i32 7, !"PIE Level", i32 2}
!3 = !{i32 7, !"uwtable", i32 1}
!4 = !{!"clang version 13.0.0"}
!5 = !{!6, !6, i64 0}
!6 = !{!"int", !7, i64 0}
!7 = !{!"omnipotent char", !8, i64 0}
!8 = !{!"Simple C/C++ TBAA"}
!9 = distinct !{!9, !10}
!10 = !{!"llvm.loop.mustprogress"}
!11 = distinct !{!11, !10}
!12 = distinct !{!12, !10}
